; Function Attrs: mustprogress nounwind uwtable
define dso_local void @_ZN5clang4edit6CommitC2ERNS0_12EditedSourceE(ptr noundef nonnull align 8 dereferenceable(600) %0, ptr noundef nonnull align 8 dereferenceable(384) %1) unnamed_addr #0 align 2 {
  %3 = load ptr, ptr %1, align 8
  store ptr %3, ptr %0, align 8
  %4 = getelementptr inbounds nuw i8, ptr %0, i64 8
  %5 = getelementptr inbounds nuw i8, ptr %1, i64 8
  %6 = load ptr, ptr %5, align 8
  store ptr %6, ptr %4, align 8
  %7 = getelementptr inbounds nuw i8, ptr %0, i64 16
  %8 = getelementptr inbounds nuw i8, ptr %1, i64 16
  %9 = load ptr, ptr %8, align 8
  store ptr %9, ptr %7, align 8
  %10 = getelementptr inbounds nuw i8, ptr %0, i64 24
  store ptr %1, ptr %10, align 8
  %11 = getelementptr inbounds nuw i8, ptr %0, i64 32
  store i8 1, ptr %11, align 8
  %12 = getelementptr inbounds nuw i8, ptr %0, i64 40
  %13 = getelementptr inbounds i8, ptr %0, i64 56
  tail call void @_ZN4llvm15SmallVectorBaseIjEC2EPvm(ptr noundef nonnull align 8 dereferenceable(16) %12, ptr noundef nonnull %13, i64 noundef 8) #7
  %14 = getelementptr inbounds nuw i8, ptr %0, i64 504
  %15 = getelementptr inbounds i8, ptr %0, i64 520
  %16 = getelementptr inbounds i8, ptr %0, i64 536
  tail call void @llvm.memset.p0.i64(ptr noundef nonnull align 8 dereferenceable(16) %14, i8 0, i64 16, i1 false)
  tail call void @_ZN4llvm15SmallVectorBaseIjEC2EPvm(ptr noundef nonnull align 8 dereferenceable(16) %15, ptr noundef nonnull %16, i64 noundef 4) #7
  %17 = getelementptr inbounds i8, ptr %0, i64 568
  %18 = getelementptr inbounds i8, ptr %0, i64 584
  tail call void @_ZN4llvm15SmallVectorBaseIjEC2EPvm(ptr noundef nonnull align 8 dereferenceable(16) %17, ptr noundef nonnull %18, i64 noundef 0) #7
  store i64 0, ptr %18, align 8
  %19 = getelementptr inbounds i8, ptr %0, i64 592
  store i64 1, ptr %19, align 8
  ret void
}